target datalayout = "e-m:e-p270:32:32-p271:32:32-p272:64:64-i64:64-i128:128-f80:128-n8:16:32:64-S128"
target triple = "x86_64-pc-linux-gnu"

%struct.ItemPointerData = type { %struct.BlockIdData, i16 }
%struct.BlockIdData = type { i16, i16 }
%struct.GinScanKeyData = type { i32, i32, ptr, ptr, i32, ptr, i32, ptr, ptr, ptr, ptr, ptr, i32, i64, ptr, ptr, ptr, i16, i32, i16, i8, %struct.ItemPointerData, i8, i8, i8 }
%struct.GinScanEntryData = type { i64, i8, i8, ptr, i16, i32, i16, i32, %struct.ItemPointerData, ptr, ptr, ptr, ptr, i32, i16, i8, i8, i32, %struct.GinBtreeData }
%struct.GinBtreeData = type { ptr, ptr, ptr, ptr, ptr, ptr, ptr, ptr, ptr, i8, ptr, i32, ptr, i8, i8, i16, i64, i8, %struct.ItemPointerData }

; Function Attrs: nounwind uwtable
define internal i32 @entryIndexByFrequencyCmp(ptr noundef %0, ptr noundef %1, ptr noundef %2) #0 {
  %4 = alloca i32, align 4
  %5 = alloca ptr, align 8
  %6 = alloca ptr, align 8
  %7 = alloca ptr, align 8
  %8 = alloca ptr, align 8
  %9 = alloca i32, align 4
  %10 = alloca i32, align 4
  %11 = alloca i32, align 4
  %12 = alloca i32, align 4
  %13 = alloca i32, align 4
  store ptr %0, ptr %5, align 8
  store ptr %1, ptr %6, align 8
  store ptr %2, ptr %7, align 8
  call void @llvm.lifetime.start.p0(i64 8, ptr %8) #8
  %14 = load ptr, ptr %7, align 8
  store ptr %14, ptr %8, align 8
  call void @llvm.lifetime.start.p0(i64 4, ptr %9) #8
  %15 = load ptr, ptr %5, align 8
  %16 = load i32, ptr %15, align 4
  store i32 %16, ptr %9, align 4
  call void @llvm.lifetime.start.p0(i64 4, ptr %10) #8
  %17 = load ptr, ptr %6, align 8
  %18 = load i32, ptr %17, align 4
  store i32 %18, ptr %10, align 4
  call void @llvm.lifetime.start.p0(i64 4, ptr %11) #8
  %19 = load ptr, ptr %8, align 8
  %20 = getelementptr inbounds nuw %struct.GinScanKeyData, ptr %19, i32 0, i32 2
  %21 = load ptr, ptr %20, align 8
  %22 = load i32, ptr %9, align 4
  %23 = sext i32 %22 to i64
  %24 = getelementptr inbounds ptr, ptr %21, i64 %23
  %25 = load ptr, ptr %24, align 8
  %26 = getelementptr inbounds nuw %struct.GinScanEntryData, ptr %25, i32 0, i32 17
  %27 = load i32, ptr %26, align 8
  store i32 %27, ptr %11, align 4
  call void @llvm.lifetime.start.p0(i64 4, ptr %12) #8
  %28 = load ptr, ptr %8, align 8
  %29 = getelementptr inbounds nuw %struct.GinScanKeyData, ptr %28, i32 0, i32 2
  %30 = load ptr, ptr %29, align 8
  %31 = load i32, ptr %10, align 4
  %32 = sext i32 %31 to i64
  %33 = getelementptr inbounds ptr, ptr %30, i64 %32
  %34 = load ptr, ptr %33, align 8
  %35 = getelementptr inbounds nuw %struct.GinScanEntryData, ptr %34, i32 0, i32 17
  %36 = load i32, ptr %35, align 8
  store i32 %36, ptr %12, align 4
  %37 = load i32, ptr %11, align 4
  %38 = load i32, ptr %12, align 4
  %39 = icmp ult i32 %37, %38
  br i1 %39, label %40, label %41

40:                                               ; preds = %3
  store i32 -1, ptr %4, align 4
  store i32 1, ptr %13, align 4
  br label %47

41:                                               ; preds = %3
  %42 = load i32, ptr %11, align 4
  %43 = load i32, ptr %12, align 4
  %44 = icmp eq i32 %42, %43
  br i1 %44, label %45, label %46

45:                                               ; preds = %41
  store i32 0, ptr %4, align 4
  store i32 1, ptr %13, align 4
  br label %47

46:                                               ; preds = %41
  store i32 1, ptr %4, align 4
  store i32 1, ptr %13, align 4
  br label %47

47:                                               ; preds = %46, %45, %40
  call void @llvm.lifetime.end.p0(i64 4, ptr %12) #8
  call void @llvm.lifetime.end.p0(i64 4, ptr %11) #8
  call void @llvm.lifetime.end.p0(i64 4, ptr %10) #8
  call void @llvm.lifetime.end.p0(i64 4, ptr %9) #8
  call void @llvm.lifetime.end.p0(i64 8, ptr %8) #8
  %48 = load i32, ptr %4, align 4
  ret i32 %48
}