; Function Attrs: mustprogress nofree norecurse nosync nounwind willreturn memory(read, inaccessiblemem: none) uwtable
define internal range(i32 -1, 2) i32 @entryIndexByFrequencyCmp(ptr noundef readonly captures(none) %0, ptr noundef readonly captures(none) %1, ptr noundef readonly captures(none) %2) #6 {
  %4 = load i32, ptr %0, align 4
  %5 = load i32, ptr %1, align 4
  %6 = getelementptr inbounds nuw i8, ptr %2, i64 8
  %7 = load ptr, ptr %6, align 8
  %8 = sext i32 %4 to i64
  %9 = getelementptr inbounds ptr, ptr %7, i64 %8
  %10 = load ptr, ptr %9, align 8
  %11 = getelementptr inbounds nuw i8, ptr %10, i64 88
  %12 = load i32, ptr %11, align 8
  %13 = sext i32 %5 to i64
  %14 = getelementptr inbounds ptr, ptr %7, i64 %13
  %15 = load ptr, ptr %14, align 8
  %16 = getelementptr inbounds nuw i8, ptr %15, i64 88
  %17 = load i32, ptr %16, align 8
  %.0 = tail call i32 @llvm.ucmp.i32.i32(i32 %12, i32 %17)
  ret i32 %.0
}